target datalayout = "e-m:e-p270:32:32-p271:32:32-p272:64:64-i64:64-i128:128-f80:128-n8:16:32:64-S128"
target triple = "x86_64-pc-linux-gnu"

%class.ModulePatchPath = type { ptr, ptr }

@_ZN10PathStringC1EPKc = hidden unnamed_addr alias void (ptr, ptr), ptr @_ZN10PathStringC2EPKc

; Function Attrs: mustprogress nounwind uwtable
define hidden void @_ZN15ModulePatchPathC2EPKcS1_(ptr noundef nonnull align 8 dereferenceable(16) %0, ptr noundef %1, ptr noundef %2) unnamed_addr #1 align 2 {
  %4 = alloca i64, align 8
  %5 = alloca i8, align 1
  %6 = alloca i64, align 8
  %7 = alloca ptr, align 8
  %8 = alloca ptr, align 8
  %9 = alloca ptr, align 8
  %10 = alloca i64, align 8
  store ptr %0, ptr %7, align 8
  store ptr %1, ptr %8, align 8
  store ptr %2, ptr %9, align 8
  %11 = load ptr, ptr %7, align 8
  %12 = load ptr, ptr %8, align 8
  %13 = call i64 @strlen(ptr noundef %12) #12
  %14 = add i64 %13, 1
  store i64 %14, ptr %10, align 8
  %15 = load i64, ptr %10, align 8
  %16 = call noundef ptr @_Z12AllocateHeapm8MEMFLAGSN17AllocFailStrategy13AllocFailEnumE(i64 noundef %15, i8 noundef zeroext 9, i32 noundef 0)
  %17 = getelementptr inbounds %class.ModulePatchPath, ptr %11, i32 0, i32 0
  store ptr %16, ptr %17, align 8
  %18 = getelementptr inbounds %class.ModulePatchPath, ptr %11, i32 0, i32 0
  %19 = load ptr, ptr %18, align 8
  %20 = load ptr, ptr %8, align 8
  %21 = load i64, ptr %10, align 8
  %22 = call ptr @strncpy(ptr noundef %19, ptr noundef %20, i64 noundef %21) #13
  store i64 8, ptr %6, align 8
  %23 = load i64, ptr %6, align 8
  store i64 %23, ptr %4, align 8
  store i8 19, ptr %5, align 1
  %24 = load i64, ptr %4, align 8
  %25 = load i8, ptr %5, align 1
  %26 = call noundef ptr @_Z12AllocateHeapm8MEMFLAGSN17AllocFailStrategy13AllocFailEnumE(i64 noundef %24, i8 noundef zeroext %25, i32 noundef 0) #13
  %27 = load ptr, ptr %9, align 8
  call void @_ZN10PathStringC1EPKc(ptr noundef nonnull align 8 dereferenceable(8) %26, ptr noundef %27)
  %28 = getelementptr inbounds %class.ModulePatchPath, ptr %11, i32 0, i32 1
  store ptr %26, ptr %28, align 8
  ret void
}