; Function Attrs: mustprogress nounwind uwtable
define hidden void @_ZN15ModulePatchPathC2EPKcS1_(ptr nocapture noundef nonnull writeonly align 8 dereferenceable(16) %0, ptr nocapture noundef readonly %1, ptr noundef readonly %2) unnamed_addr #0 align 2 {
  %4 = tail call i64 @strlen(ptr noundef nonnull dereferenceable(1) %1) #30
  %5 = add i64 %4, 1
  %6 = tail call noundef ptr @_Z12AllocateHeapm8MEMFLAGSN17AllocFailStrategy13AllocFailEnumE(i64 noundef %5, i8 noundef zeroext 9, i32 noundef 0) #31
  store ptr %6, ptr %0, align 8
  %7 = tail call ptr @strncpy(ptr noundef %6, ptr noundef %1, i64 noundef %5) #31
  %8 = tail call noundef ptr @_Z12AllocateHeapm8MEMFLAGSN17AllocFailStrategy13AllocFailEnumE(i64 noundef 8, i8 noundef zeroext 19, i32 noundef 0) #31
  %9 = icmp eq ptr %2, null
  br i1 %9, label %10, label %11

10:                                               ; preds = %3
  store ptr null, ptr %8, align 8
  br label %_ZN10PathStringC2EPKc.exit

11:                                               ; preds = %3
  %12 = tail call i64 @strlen(ptr noundef nonnull readonly dereferenceable(1) %2) #30
  %13 = add i64 %12, 1
  %14 = tail call noundef ptr @_Z12AllocateHeapm8MEMFLAGSN17AllocFailStrategy13AllocFailEnumE(i64 noundef %13, i8 noundef zeroext 19, i32 noundef 0) #31
  store ptr %14, ptr %8, align 8
  %15 = tail call ptr @strcpy(ptr noundef nonnull dereferenceable(1) %14, ptr noundef nonnull readonly dereferenceable(1) %2) #31
  br label %_ZN10PathStringC2EPKc.exit

_ZN10PathStringC2EPKc.exit:                       ; preds = %10, %11
  %16 = getelementptr inbounds i8, ptr %0, i64 8
  store ptr %8, ptr %16, align 8
  ret void
}